target datalayout = "e-m:e-p270:32:32-p271:32:32-p272:64:64-i64:64-i128:128-f80:128-n8:16:32:64-S128"
target triple = "x86_64-pc-linux-gnu"

@debug = external global ptr, align 8
@.str.7 = private unnamed_addr constant [9 x i8] c"PC: pres\00", align 1
@.str.8 = private unnamed_addr constant [9 x i8] c"PC: ekin\00", align 1
@.str.9 = private unnamed_addr constant [9 x i8] c"PC: vir \00", align 1
@.str.10 = private unnamed_addr constant [9 x i8] c"PC: box \00", align 1

; Function Attrs: inlinehint mustprogress nounwind uwtable
define internal noundef float @_ZL5tracePA3_Kf(ptr noundef %0) #2 {
  %2 = alloca ptr, align 8
  store ptr %0, ptr %2, align 8, !tbaa !163
  %3 = load ptr, ptr %2, align 8, !tbaa !163
  %4 = getelementptr inbounds [3 x float], ptr %3, i64 0
  %5 = getelementptr inbounds [3 x float], ptr %4, i64 0, i64 0
  %6 = load float, ptr %5, align 4, !tbaa !118
  %7 = load ptr, ptr %2, align 8, !tbaa !163
  %8 = getelementptr inbounds [3 x float], ptr %7, i64 1
  %9 = getelementptr inbounds [3 x float], ptr %8, i64 0, i64 1
  %10 = load float, ptr %9, align 4, !tbaa !118
  %11 = fadd float %6, %10
  %12 = load ptr, ptr %2, align 8, !tbaa !163
  %13 = getelementptr inbounds [3 x float], ptr %12, i64 2
  %14 = getelementptr inbounds [3 x float], ptr %13, i64 0, i64 2
  %15 = load float, ptr %14, align 4, !tbaa !118
  %16 = fadd float %11, %15
  ret float %16
}

; Function Attrs: inlinehint mustprogress nounwind uwtable
define internal noundef float @_ZL3detPA3_Kf(ptr noundef %0) #2 {
  %2 = alloca ptr, align 8
  store ptr %0, ptr %2, align 8, !tbaa !163
  %3 = load ptr, ptr %2, align 8, !tbaa !163
  %4 = getelementptr inbounds [3 x float], ptr %3, i64 0
  %5 = getelementptr inbounds [3 x float], ptr %4, i64 0, i64 0
  %6 = load float, ptr %5, align 4, !tbaa !118
  %7 = load ptr, ptr %2, align 8, !tbaa !163
  %8 = getelementptr inbounds [3 x float], ptr %7, i64 1
  %9 = getelementptr inbounds [3 x float], ptr %8, i64 0, i64 1
  %10 = load float, ptr %9, align 4, !tbaa !118
  %11 = load ptr, ptr %2, align 8, !tbaa !163
  %12 = getelementptr inbounds [3 x float], ptr %11, i64 2
  %13 = getelementptr inbounds [3 x float], ptr %12, i64 0, i64 2
  %14 = load float, ptr %13, align 4, !tbaa !118
  %15 = load ptr, ptr %2, align 8, !tbaa !163
  %16 = getelementptr inbounds [3 x float], ptr %15, i64 2
  %17 = getelementptr inbounds [3 x float], ptr %16, i64 0, i64 1
  %18 = load float, ptr %17, align 4, !tbaa !118
  %19 = load ptr, ptr %2, align 8, !tbaa !163
  %20 = getelementptr inbounds [3 x float], ptr %19, i64 1
  %21 = getelementptr inbounds [3 x float], ptr %20, i64 0, i64 2
  %22 = load float, ptr %21, align 4, !tbaa !118
  %23 = fmul float %18, %22
  %24 = fneg float %23
  %25 = call float @llvm.fmuladd.f32(float %10, float %14, float %24)
  %26 = load ptr, ptr %2, align 8, !tbaa !163
  %27 = getelementptr inbounds [3 x float], ptr %26, i64 1
  %28 = getelementptr inbounds [3 x float], ptr %27, i64 0, i64 0
  %29 = load float, ptr %28, align 4, !tbaa !118
  %30 = load ptr, ptr %2, align 8, !tbaa !163
  %31 = getelementptr inbounds [3 x float], ptr %30, i64 0
  %32 = getelementptr inbounds [3 x float], ptr %31, i64 0, i64 1
  %33 = load float, ptr %32, align 4, !tbaa !118
  %34 = load ptr, ptr %2, align 8, !tbaa !163
  %35 = getelementptr inbounds [3 x float], ptr %34, i64 2
  %36 = getelementptr inbounds [3 x float], ptr %35, i64 0, i64 2
  %37 = load float, ptr %36, align 4, !tbaa !118
  %38 = load ptr, ptr %2, align 8, !tbaa !163
  %39 = getelementptr inbounds [3 x float], ptr %38, i64 2
  %40 = getelementptr inbounds [3 x float], ptr %39, i64 0, i64 1
  %41 = load float, ptr %40, align 4, !tbaa !118
  %42 = load ptr, ptr %2, align 8, !tbaa !163
  %43 = getelementptr inbounds [3 x float], ptr %42, i64 0
  %44 = getelementptr inbounds [3 x float], ptr %43, i64 0, i64 2
  %45 = load float, ptr %44, align 4, !tbaa !118
  %46 = fmul float %41, %45
  %47 = fneg float %46
  %48 = call float @llvm.fmuladd.f32(float %33, float %37, float %47)
  %49 = fmul float %29, %48
  %50 = fneg float %49
  %51 = call float @llvm.fmuladd.f32(float %6, float %25, float %50)
  %52 = load ptr, ptr %2, align 8, !tbaa !163
  %53 = getelementptr inbounds [3 x float], ptr %52, i64 2
  %54 = getelementptr inbounds [3 x float], ptr %53, i64 0, i64 0
  %55 = load float, ptr %54, align 4, !tbaa !118
  %56 = load ptr, ptr %2, align 8, !tbaa !163
  %57 = getelementptr inbounds [3 x float], ptr %56, i64 0
  %58 = getelementptr inbounds [3 x float], ptr %57, i64 0, i64 1
  %59 = load float, ptr %58, align 4, !tbaa !118
  %60 = load ptr, ptr %2, align 8, !tbaa !163
  %61 = getelementptr inbounds [3 x float], ptr %60, i64 1
  %62 = getelementptr inbounds [3 x float], ptr %61, i64 0, i64 2
  %63 = load float, ptr %62, align 4, !tbaa !118
  %64 = load ptr, ptr %2, align 8, !tbaa !163
  %65 = getelementptr inbounds [3 x float], ptr %64, i64 1
  %66 = getelementptr inbounds [3 x float], ptr %65, i64 0, i64 1
  %67 = load float, ptr %66, align 4, !tbaa !118
  %68 = load ptr, ptr %2, align 8, !tbaa !163
  %69 = getelementptr inbounds [3 x float], ptr %68, i64 0
  %70 = getelementptr inbounds [3 x float], ptr %69, i64 0, i64 2
  %71 = load float, ptr %70, align 4, !tbaa !118
  %72 = fmul float %67, %71
  %73 = fneg float %72
  %74 = call float @llvm.fmuladd.f32(float %59, float %63, float %73)
  %75 = call float @llvm.fmuladd.f32(float %55, float %74, float %51)
  ret float %75
}

; Function Attrs: inlinehint mustprogress nounwind uwtable
define internal void @_ZL9clear_matPA3_f(ptr noundef %0) #2 {
  %2 = alloca ptr, align 8
  %3 = alloca float, align 4
  store ptr %0, ptr %2, align 8, !tbaa !163
  call void @llvm.lifetime.start.p0(i64 4, ptr %3) #20
  store float 0.000000e+00, ptr %3, align 4, !tbaa !118
  %4 = load ptr, ptr %2, align 8, !tbaa !163
  %5 = getelementptr inbounds [3 x float], ptr %4, i64 0
  %6 = getelementptr inbounds [3 x float], ptr %5, i64 0, i64 2
  store float 0.000000e+00, ptr %6, align 4, !tbaa !118
  %7 = load ptr, ptr %2, align 8, !tbaa !163
  %8 = getelementptr inbounds [3 x float], ptr %7, i64 0
  %9 = getelementptr inbounds [3 x float], ptr %8, i64 0, i64 1
  store float 0.000000e+00, ptr %9, align 4, !tbaa !118
  %10 = load ptr, ptr %2, align 8, !tbaa !163
  %11 = getelementptr inbounds [3 x float], ptr %10, i64 0
  %12 = getelementptr inbounds [3 x float], ptr %11, i64 0, i64 0
  store float 0.000000e+00, ptr %12, align 4, !tbaa !118
  %13 = load ptr, ptr %2, align 8, !tbaa !163
  %14 = getelementptr inbounds [3 x float], ptr %13, i64 1
  %15 = getelementptr inbounds [3 x float], ptr %14, i64 0, i64 2
  store float 0.000000e+00, ptr %15, align 4, !tbaa !118
  %16 = load ptr, ptr %2, align 8, !tbaa !163
  %17 = getelementptr inbounds [3 x float], ptr %16, i64 1
  %18 = getelementptr inbounds [3 x float], ptr %17, i64 0, i64 1
  store float 0.000000e+00, ptr %18, align 4, !tbaa !118
  %19 = load ptr, ptr %2, align 8, !tbaa !163
  %20 = getelementptr inbounds [3 x float], ptr %19, i64 1
  %21 = getelementptr inbounds [3 x float], ptr %20, i64 0, i64 0
  store float 0.000000e+00, ptr %21, align 4, !tbaa !118
  %22 = load ptr, ptr %2, align 8, !tbaa !163
  %23 = getelementptr inbounds [3 x float], ptr %22, i64 2
  %24 = getelementptr inbounds [3 x float], ptr %23, i64 0, i64 2
  store float 0.000000e+00, ptr %24, align 4, !tbaa !118
  %25 = load ptr, ptr %2, align 8, !tbaa !163
  %26 = getelementptr inbounds [3 x float], ptr %25, i64 2
  %27 = getelementptr inbounds [3 x float], ptr %26, i64 0, i64 1
  store float 0.000000e+00, ptr %27, align 4, !tbaa !118
  %28 = load ptr, ptr %2, align 8, !tbaa !163
  %29 = getelementptr inbounds [3 x float], ptr %28, i64 2
  %30 = getelementptr inbounds [3 x float], ptr %29, i64 0, i64 0
  store float 0.000000e+00, ptr %30, align 4, !tbaa !118
  call void @llvm.lifetime.end.p0(i64 4, ptr %3) #20
  ret void
}

; Function Attrs: mustprogress uwtable
define noundef float @_Z9calc_pres7PbcTypeiPA3_KfS2_S2_PA3_f(i32 noundef %0, i32 noundef %1, ptr noundef %2, ptr noundef %3, ptr noundef %4, ptr noundef %5) #0 {
  %7 = alloca i32, align 4
  %8 = alloca i32, align 4
  %9 = alloca ptr, align 8
  %10 = alloca ptr, align 8
  %11 = alloca ptr, align 8
  %12 = alloca ptr, align 8
  %13 = alloca i32, align 4
  %14 = alloca i32, align 4
  %15 = alloca float, align 4
  store i32 %0, ptr %7, align 4, !tbaa !391
  store i32 %1, ptr %8, align 4, !tbaa !17
  store ptr %2, ptr %9, align 8, !tbaa !163
  store ptr %3, ptr %10, align 8, !tbaa !163
  store ptr %4, ptr %11, align 8, !tbaa !163
  store ptr %5, ptr %12, align 8, !tbaa !163
  call void @llvm.lifetime.start.p0(i64 4, ptr %13) #20
  call void @llvm.lifetime.start.p0(i64 4, ptr %14) #20
  call void @llvm.lifetime.start.p0(i64 4, ptr %15) #20
  %16 = load i32, ptr %7, align 4, !tbaa !391
  %17 = icmp eq i32 %16, 1
  br i1 %17, label %24, label %18

18:                                               ; preds = %6
  %19 = load i32, ptr %7, align 4, !tbaa !391
  %20 = icmp eq i32 %19, 2
  br i1 %20, label %21, label %26

21:                                               ; preds = %18
  %22 = load i32, ptr %8, align 4, !tbaa !17
  %23 = icmp ne i32 %22, 2
  br i1 %23, label %24, label %26

24:                                               ; preds = %21, %6
  %25 = load ptr, ptr %12, align 8, !tbaa !163
  call void @_ZL9clear_matPA3_f(ptr noundef %25)
  br label %86

26:                                               ; preds = %21, %18
  %27 = load ptr, ptr %9, align 8, !tbaa !163
  %28 = call noundef float @_ZL3detPA3_Kf(ptr noundef %27)
  %29 = fpext float %28 to double
  %30 = fdiv double 0x40409AFAE1F7C60E, %29
  %31 = fptrunc double %30 to float
  store float %31, ptr %15, align 4, !tbaa !118
  store i32 0, ptr %13, align 4, !tbaa !17
  br label %32

32:                                               ; preds = %70, %26
  %33 = load i32, ptr %13, align 4, !tbaa !17
  %34 = icmp slt i32 %33, 3
  br i1 %34, label %35, label %73

35:                                               ; preds = %32
  store i32 0, ptr %14, align 4, !tbaa !17
  br label %36

36:                                               ; preds = %66, %35
  %37 = load i32, ptr %14, align 4, !tbaa !17
  %38 = icmp slt i32 %37, 3
  br i1 %38, label %39, label %69

39:                                               ; preds = %36
  %40 = load ptr, ptr %10, align 8, !tbaa !163
  %41 = load i32, ptr %13, align 4, !tbaa !17
  %42 = sext i32 %41 to i64
  %43 = getelementptr inbounds [3 x float], ptr %40, i64 %42
  %44 = load i32, ptr %14, align 4, !tbaa !17
  %45 = sext i32 %44 to i64
  %46 = getelementptr inbounds [3 x float], ptr %43, i64 0, i64 %45
  %47 = load float, ptr %46, align 4, !tbaa !118
  %48 = load ptr, ptr %11, align 8, !tbaa !163
  %49 = load i32, ptr %13, align 4, !tbaa !17
  %50 = sext i32 %49 to i64
  %51 = getelementptr inbounds [3 x float], ptr %48, i64 %50
  %52 = load i32, ptr %14, align 4, !tbaa !17
  %53 = sext i32 %52 to i64
  %54 = getelementptr inbounds [3 x float], ptr %51, i64 0, i64 %53
  %55 = load float, ptr %54, align 4, !tbaa !118
  %56 = fsub float %47, %55
  %57 = load float, ptr %15, align 4, !tbaa !118
  %58 = fmul float %56, %57
  %59 = load ptr, ptr %12, align 8, !tbaa !163
  %60 = load i32, ptr %13, align 4, !tbaa !17
  %61 = sext i32 %60 to i64
  %62 = getelementptr inbounds [3 x float], ptr %59, i64 %61
  %63 = load i32, ptr %14, align 4, !tbaa !17
  %64 = sext i32 %63 to i64
  %65 = getelementptr inbounds [3 x float], ptr %62, i64 0, i64 %64
  store float %58, ptr %65, align 4, !tbaa !118
  br label %66

66:                                               ; preds = %39
  %67 = load i32, ptr %14, align 4, !tbaa !17
  %68 = add nsw i32 %67, 1
  store i32 %68, ptr %14, align 4, !tbaa !17
  br label %36, !llvm.loop !392

69:                                               ; preds = %36
  br label %70

70:                                               ; preds = %69
  %71 = load i32, ptr %13, align 4, !tbaa !17
  %72 = add nsw i32 %71, 1
  store i32 %72, ptr %13, align 4, !tbaa !17
  br label %32, !llvm.loop !393

73:                                               ; preds = %32
  %74 = load ptr, ptr @debug, align 8, !tbaa !133
  %75 = icmp ne ptr %74, null
  br i1 %75, label %76, label %85

76:                                               ; preds = %73
  %77 = load ptr, ptr @debug, align 8, !tbaa !133
  %78 = load ptr, ptr %12, align 8, !tbaa !163
  call void @_Z8pr_rvecsP8_IO_FILEiPKcPA3_Kfi(ptr noundef %77, i32 noundef 0, ptr noundef @.str.7, ptr noundef %78, i32 noundef 3)
  %79 = load ptr, ptr @debug, align 8, !tbaa !133
  %80 = load ptr, ptr %10, align 8, !tbaa !163
  call void @_Z8pr_rvecsP8_IO_FILEiPKcPA3_Kfi(ptr noundef %79, i32 noundef 0, ptr noundef @.str.8, ptr noundef %80, i32 noundef 3)
  %81 = load ptr, ptr @debug, align 8, !tbaa !133
  %82 = load ptr, ptr %11, align 8, !tbaa !163
  call void @_Z8pr_rvecsP8_IO_FILEiPKcPA3_Kfi(ptr noundef %81, i32 noundef 0, ptr noundef @.str.9, ptr noundef %82, i32 noundef 3)
  %83 = load ptr, ptr @debug, align 8, !tbaa !133
  %84 = load ptr, ptr %9, align 8, !tbaa !163
  call void @_Z8pr_rvecsP8_IO_FILEiPKcPA3_Kfi(ptr noundef %83, i32 noundef 0, ptr noundef @.str.10, ptr noundef %84, i32 noundef 3)
  br label %85

85:                                               ; preds = %76, %73
  br label %86

86:                                               ; preds = %85, %24
  %87 = load ptr, ptr %12, align 8, !tbaa !163
  %88 = call noundef float @_ZL5tracePA3_Kf(ptr noundef %87)
  %89 = fdiv float %88, 3.000000e+00
  call void @llvm.lifetime.end.p0(i64 4, ptr %15) #20
  call void @llvm.lifetime.end.p0(i64 4, ptr %14) #20
  call void @llvm.lifetime.end.p0(i64 4, ptr %13) #20
  ret float %89
}