; Function Attrs: mustprogress uwtable
define noundef float @_Z9calc_pres7PbcTypeiPA3_KfS2_S2_PA3_f(i32 noundef %0, i32 noundef %1, ptr noundef %2, ptr noundef %3, ptr noundef %4, ptr noundef %5) local_unnamed_addr #0 {
  %7 = icmp eq i32 %0, 1
  br i1 %7, label %11, label %8

8:                                                ; preds = %6
  %9 = icmp eq i32 %0, 2
  %10 = icmp ne i32 %1, 2
  %or.cond = and i1 %9, %10
  br i1 %or.cond, label %11, label %12

11:                                               ; preds = %8, %6
  tail call void @llvm.memset.p0.i64(ptr noundef nonnull align 4 dereferenceable(36) %5, i8 0, i64 36, i1 false)
  br label %60

12:                                               ; preds = %8
  %13 = load float, ptr %2, align 4, !tbaa !114
  %14 = getelementptr inbounds nuw i8, ptr %2, i64 12
  %15 = getelementptr inbounds nuw i8, ptr %2, i64 16
  %16 = load float, ptr %15, align 4, !tbaa !114
  %17 = getelementptr inbounds nuw i8, ptr %2, i64 24
  %18 = getelementptr inbounds nuw i8, ptr %2, i64 32
  %19 = load float, ptr %18, align 4, !tbaa !114
  %20 = getelementptr inbounds nuw i8, ptr %2, i64 28
  %21 = load float, ptr %20, align 4, !tbaa !114
  %22 = getelementptr inbounds nuw i8, ptr %2, i64 20
  %23 = load float, ptr %22, align 4, !tbaa !114
  %24 = fneg float %23
  %25 = fmul float %21, %24
  %26 = tail call float @llvm.fmuladd.f32(float %16, float %19, float %25)
  %27 = load float, ptr %14, align 4, !tbaa !114
  %28 = getelementptr inbounds nuw i8, ptr %2, i64 4
  %29 = load float, ptr %28, align 4, !tbaa !114
  %30 = getelementptr inbounds nuw i8, ptr %2, i64 8
  %31 = load float, ptr %30, align 4, !tbaa !114
  %32 = fneg float %31
  %33 = fmul float %21, %32
  %34 = tail call float @llvm.fmuladd.f32(float %29, float %19, float %33)
  %35 = fneg float %34
  %36 = fmul float %27, %35
  %37 = tail call float @llvm.fmuladd.f32(float %13, float %26, float %36)
  %38 = load float, ptr %17, align 4, !tbaa !114
  %39 = fmul float %16, %32
  %40 = tail call float @llvm.fmuladd.f32(float %29, float %23, float %39)
  %41 = tail call noundef float @llvm.fmuladd.f32(float %38, float %40, float %37)
  %42 = fpext float %41 to double
  %43 = fdiv double 0x40409AFAE1F7C60E, %42
  %44 = fptrunc double %43 to float
  br label %.preheader

.preheader:                                       ; preds = %12, %53
  %indvars.iv30 = phi i64 [ 0, %12 ], [ %indvars.iv.next31, %53 ]
  br label %45

45:                                               ; preds = %.preheader, %45
  %indvars.iv = phi i64 [ 0, %.preheader ], [ %indvars.iv.next, %45 ]
  %46 = getelementptr inbounds nuw [3 x float], ptr %3, i64 %indvars.iv30, i64 %indvars.iv
  %47 = load float, ptr %46, align 4, !tbaa !114
  %48 = getelementptr inbounds nuw [3 x float], ptr %4, i64 %indvars.iv30, i64 %indvars.iv
  %49 = load float, ptr %48, align 4, !tbaa !114
  %50 = fsub float %47, %49
  %51 = fmul float %50, %44
  %52 = getelementptr inbounds nuw [3 x float], ptr %5, i64 %indvars.iv30, i64 %indvars.iv
  store float %51, ptr %52, align 4, !tbaa !114
  %indvars.iv.next = add nuw nsw i64 %indvars.iv, 1
  %exitcond.not = icmp eq i64 %indvars.iv.next, 3
  br i1 %exitcond.not, label %53, label %45, !llvm.loop !296

53:                                               ; preds = %45
  %indvars.iv.next31 = add nuw nsw i64 %indvars.iv30, 1
  %exitcond33.not = icmp eq i64 %indvars.iv.next31, 3
  br i1 %exitcond33.not, label %54, label %.preheader, !llvm.loop !297

54:                                               ; preds = %53
  %55 = load ptr, ptr @debug, align 8, !tbaa !135
  %.not = icmp eq ptr %55, null
  br i1 %.not, label %60, label %56

56:                                               ; preds = %54
  tail call void @_Z8pr_rvecsP8_IO_FILEiPKcPA3_Kfi(ptr noundef nonnull %55, i32 noundef 0, ptr noundef nonnull @.str.7, ptr noundef nonnull %5, i32 noundef 3)
  %57 = load ptr, ptr @debug, align 8, !tbaa !135
  tail call void @_Z8pr_rvecsP8_IO_FILEiPKcPA3_Kfi(ptr noundef %57, i32 noundef 0, ptr noundef nonnull @.str.8, ptr noundef nonnull %3, i32 noundef 3)
  %58 = load ptr, ptr @debug, align 8, !tbaa !135
  tail call void @_Z8pr_rvecsP8_IO_FILEiPKcPA3_Kfi(ptr noundef %58, i32 noundef 0, ptr noundef nonnull @.str.9, ptr noundef nonnull %4, i32 noundef 3)
  %59 = load ptr, ptr @debug, align 8, !tbaa !135
  tail call void @_Z8pr_rvecsP8_IO_FILEiPKcPA3_Kfi(ptr noundef %59, i32 noundef 0, ptr noundef nonnull @.str.10, ptr noundef nonnull %2, i32 noundef 3)
  br label %60

60:                                               ; preds = %54, %56, %11
  %61 = load float, ptr %5, align 4, !tbaa !114
  %62 = getelementptr inbounds nuw i8, ptr %5, i64 16
  %63 = load float, ptr %62, align 4, !tbaa !114
  %64 = fadd float %61, %63
  %65 = getelementptr inbounds nuw i8, ptr %5, i64 32
  %66 = load float, ptr %65, align 4, !tbaa !114
  %67 = fadd float %64, %66
  %68 = fdiv float %67, 3.000000e+00
  ret float %68
}